; ModuleID = '15/1484.c'
source_filename = "15/1484.c"
target datalayout = "e-m:e-p270:32:32-p271:32:32-p272:64:64-i64:64-f80:128-n8:16:32:64-S128"
target triple = "x86_64-pc-linux-gnu"

@.str = private unnamed_addr constant [4 x i8] c"%d\0A\00", align 1
@.str.1 = private unnamed_addr constant [3 x i8] c"%d\00", align 1

; Function Attrs: noinline nounwind uwtable
define dso_local i32 @main() #0 {
  %1 = alloca i32, align 4
  %2 = alloca i32, align 4
  %3 = alloca i32, align 4
  %4 = alloca i32, align 4
  %5 = alloca i32, align 4
  %6 = alloca i32, align 4
  %7 = alloca i32, align 4
  %8 = alloca i32, align 4
  %9 = alloca i32, align 4
  %10 = alloca i32, align 4
  %11 = alloca [100 x [100 x i64]], align 16
  store i32 0, i32* %1, align 4
  %12 = call i32 (i8*, ...) @__isoc99_scanf(i8* getelementptr inbounds ([4 x i8], [4 x i8]* @.str, i64 0, i64 0), i32* %4)
  store i32 0, i32* %2, align 4
  br label %13

13:                                               ; preds = %34, %0
  %14 = load i32, i32* %2, align 4
  %15 = load i32, i32* %4, align 4
  %16 = icmp slt i32 %14, %15
  br i1 %16, label %17, label %37

17:                                               ; preds = %13
  store i32 0, i32* %3, align 4
  br label %18

18:                                               ; preds = %30, %17
  %19 = load i32, i32* %3, align 4
  %20 = load i32, i32* %4, align 4
  %21 = icmp slt i32 %19, %20
  br i1 %21, label %22, label %33

22:                                               ; preds = %18
  %23 = load i32, i32* %2, align 4
  %24 = sext i32 %23 to i64
  %25 = getelementptr inbounds [100 x [100 x i64]], [100 x [100 x i64]]* %11, i64 0, i64 %24
  %26 = load i32, i32* %3, align 4
  %27 = sext i32 %26 to i64
  %28 = getelementptr inbounds [100 x i64], [100 x i64]* %25, i64 0, i64 %27
  %29 = call i32 (i8*, ...) @__isoc99_scanf(i8* getelementptr inbounds ([3 x i8], [3 x i8]* @.str.1, i64 0, i64 0), i64* %28)
  br label %30

30:                                               ; preds = %22
  %31 = load i32, i32* %3, align 4
  %32 = add nsw i32 %31, 1
  store i32 %32, i32* %3, align 4
  br label %18

33:                                               ; preds = %18
  br label %34

34:                                               ; preds = %33
  %35 = load i32, i32* %2, align 4
  %36 = add nsw i32 %35, 1
  store i32 %36, i32* %2, align 4
  br label %13

37:                                               ; preds = %13
  store i32 0, i32* %5, align 4
  store i32 0, i32* %2, align 4
  br label %38

38:                                               ; preds = %95, %37
  %39 = load i32, i32* %2, align 4
  %40 = load i32, i32* %4, align 4
  %41 = icmp slt i32 %39, %40
  br i1 %41, label %42, label %98

42:                                               ; preds = %38
  store i32 0, i32* %3, align 4
  br label %43

43:                                               ; preds = %91, %42
  %44 = load i32, i32* %3, align 4
  %45 = load i32, i32* %4, align 4
  %46 = icmp slt i32 %44, %45
  br i1 %46, label %47, label %94

47:                                               ; preds = %43
  %48 = load i32, i32* %2, align 4
  %49 = sext i32 %48 to i64
  %50 = getelementptr inbounds [100 x [100 x i64]], [100 x [100 x i64]]* %11, i64 0, i64 %49
  %51 = load i32, i32* %3, align 4
  %52 = sext i32 %51 to i64
  %53 = getelementptr inbounds [100 x i64], [100 x i64]* %50, i64 0, i64 %52
  %54 = load i64, i64* %53, align 8
  %55 = icmp eq i64 %54, 0
  br i1 %55, label %56, label %90

56:                                               ; preds = %47
  %57 = load i32, i32* %2, align 4
  %58 = sub nsw i32 %57, 1
  %59 = sext i32 %58 to i64
  %60 = getelementptr inbounds [100 x [100 x i64]], [100 x [100 x i64]]* %11, i64 0, i64 %59
  %61 = load i32, i32* %3, align 4
  %62 = sub nsw i32 %61, 1
  %63 = sext i32 %62 to i64
  %64 = getelementptr inbounds [100 x i64], [100 x i64]* %60, i64 0, i64 %63
  %65 = load i64, i64* %64, align 8
  %66 = icmp eq i64 %65, 255
  br i1 %66, label %67, label %90

67:                                               ; preds = %56
  %68 = load i32, i32* %2, align 4
  %69 = sub nsw i32 %68, 1
  %70 = sext i32 %69 to i64
  %71 = getelementptr inbounds [100 x [100 x i64]], [100 x [100 x i64]]* %11, i64 0, i64 %70
  %72 = load i32, i32* %3, align 4
  %73 = sext i32 %72 to i64
  %74 = getelementptr inbounds [100 x i64], [100 x i64]* %71, i64 0, i64 %73
  %75 = load i64, i64* %74, align 8
  %76 = icmp eq i64 %75, 255
  br i1 %76, label %77, label %90

77:                                               ; preds = %67
  %78 = load i32, i32* %2, align 4
  %79 = sext i32 %78 to i64
  %80 = getelementptr inbounds [100 x [100 x i64]], [100 x [100 x i64]]* %11, i64 0, i64 %79
  %81 = load i32, i32* %3, align 4
  %82 = sub nsw i32 %81, 1
  %83 = sext i32 %82 to i64
  %84 = getelementptr inbounds [100 x i64], [100 x i64]* %80, i64 0, i64 %83
  %85 = load i64, i64* %84, align 8
  %86 = icmp eq i64 %85, 255
  br i1 %86, label %87, label %90

87:                                               ; preds = %77
  %88 = load i32, i32* %2, align 4
  store i32 %88, i32* %6, align 4
  %89 = load i32, i32* %3, align 4
  store i32 %89, i32* %7, align 4
  br label %90

90:                                               ; preds = %87, %77, %67, %56, %47
  br label %91

91:                                               ; preds = %90
  %92 = load i32, i32* %3, align 4
  %93 = add nsw i32 %92, 1
  store i32 %93, i32* %3, align 4
  br label %43

94:                                               ; preds = %43
  br label %95

95:                                               ; preds = %94
  %96 = load i32, i32* %2, align 4
  %97 = add nsw i32 %96, 1
  store i32 %97, i32* %2, align 4
  br label %38

98:                                               ; preds = %38
  %99 = load i32, i32* %4, align 4
  %100 = sub nsw i32 %99, 1
  store i32 %100, i32* %2, align 4
  br label %101

101:                                              ; preds = %158, %98
  %102 = load i32, i32* %2, align 4
  %103 = icmp sge i32 %102, 0
  br i1 %103, label %104, label %161

104:                                              ; preds = %101
  %105 = load i32, i32* %4, align 4
  %106 = sub nsw i32 %105, 1
  store i32 %106, i32* %3, align 4
  br label %107

107:                                              ; preds = %154, %104
  %108 = load i32, i32* %3, align 4
  %109 = icmp sge i32 %108, 0
  br i1 %109, label %110, label %157

110:                                              ; preds = %107
  %111 = load i32, i32* %2, align 4
  %112 = sext i32 %111 to i64
  %113 = getelementptr inbounds [100 x [100 x i64]], [100 x [100 x i64]]* %11, i64 0, i64 %112
  %114 = load i32, i32* %3, align 4
  %115 = sext i32 %114 to i64
  %116 = getelementptr inbounds [100 x i64], [100 x i64]* %113, i64 0, i64 %115
  %117 = load i64, i64* %116, align 8
  %118 = icmp eq i64 %117, 0
  br i1 %118, label %119, label %153

119:                                              ; preds = %110
  %120 = load i32, i32* %2, align 4
  %121 = add nsw i32 %120, 1
  %122 = sext i32 %121 to i64
  %123 = getelementptr inbounds [100 x [100 x i64]], [100 x [100 x i64]]* %11, i64 0, i64 %122
  %124 = load i32, i32* %3, align 4
  %125 = add nsw i32 %124, 1
  %126 = sext i32 %125 to i64
  %127 = getelementptr inbounds [100 x i64], [100 x i64]* %123, i64 0, i64 %126
  %128 = load i64, i64* %127, align 8
  %129 = icmp eq i64 %128, 255
  br i1 %129, label %130, label %153

130:                                              ; preds = %119
  %131 = load i32, i32* %2, align 4
  %132 = add nsw i32 %131, 1
  %133 = sext i32 %132 to i64
  %134 = getelementptr inbounds [100 x [100 x i64]], [100 x [100 x i64]]* %11, i64 0, i64 %133
  %135 = load i32, i32* %3, align 4
  %136 = sext i32 %135 to i64
  %137 = getelementptr inbounds [100 x i64], [100 x i64]* %134, i64 0, i64 %136
  %138 = load i64, i64* %137, align 8
  %139 = icmp eq i64 %138, 255
  br i1 %139, label %140, label %153

140:                                              ; preds = %130
  %141 = load i32, i32* %2, align 4
  %142 = sext i32 %141 to i64
  %143 = getelementptr inbounds [100 x [100 x i64]], [100 x [100 x i64]]* %11, i64 0, i64 %142
  %144 = load i32, i32* %3, align 4
  %145 = add nsw i32 %144, 1
  %146 = sext i32 %145 to i64
  %147 = getelementptr inbounds [100 x i64], [100 x i64]* %143, i64 0, i64 %146
  %148 = load i64, i64* %147, align 8
  %149 = icmp eq i64 %148, 255
  br i1 %149, label %150, label %153

150:                                              ; preds = %140
  %151 = load i32, i32* %2, align 4
  store i32 %151, i32* %8, align 4
  %152 = load i32, i32* %3, align 4
  store i32 %152, i32* %9, align 4
  br label %153

153:                                              ; preds = %150, %140, %130, %119, %110
  br label %154

154:                                              ; preds = %153
  %155 = load i32, i32* %3, align 4
  %156 = add nsw i32 %155, -1
  store i32 %156, i32* %3, align 4
  br label %107

157:                                              ; preds = %107
  br label %158

158:                                              ; preds = %157
  %159 = load i32, i32* %2, align 4
  %160 = add nsw i32 %159, -1
  store i32 %160, i32* %2, align 4
  br label %101

161:                                              ; preds = %101
  %162 = load i32, i32* %8, align 4
  %163 = load i32, i32* %6, align 4
  %164 = sub nsw i32 %162, %163
  %165 = sub nsw i32 %164, 1
  %166 = load i32, i32* %9, align 4
  %167 = load i32, i32* %7, align 4
  %168 = sub nsw i32 %166, %167
  %169 = sub nsw i32 %168, 1
  %170 = mul nsw i32 %165, %169
  store i32 %170, i32* %10, align 4
  %171 = load i32, i32* %10, align 4
  %172 = call i32 (i8*, ...) @printf(i8* getelementptr inbounds ([3 x i8], [3 x i8]* @.str.1, i64 0, i64 0), i32 %171)
  ret i32 0
}

declare dso_local i32 @__isoc99_scanf(i8*, ...) #1

declare dso_local i32 @printf(i8*, ...) #1


!llvm.module.flags = !{!0}
!llvm.ident = !{!1}

!0 = !{i32 1, !"wchar_size", i32 4}
!1 = !{!"clang version 10.0.0-4ubuntu1 "}
